; Function Attrs: mustprogress uwtable
define internal noalias noundef nonnull ptr @_ZNK7testing8internal30ValuesInIteratorRangeGeneratorIN12_GLOBAL__N_19TestParamEE3EndEv(ptr noundef nonnull align 8 dereferenceable(32) %this) unnamed_addr #3 align 2 personality ptr @__gxx_personality_v0 {
entry:
  %call = tail call noalias noundef nonnull dereferenceable(32) ptr @_Znwm(i64 noundef 32) #29
  %0 = getelementptr inbounds i8, ptr %this, i64 16
  %container_.val = load ptr, ptr %0, align 8
  store ptr getelementptr inbounds ({ [9 x ptr] }, ptr @_ZTVN7testing8internal30ValuesInIteratorRangeGeneratorIN12_GLOBAL__N_19TestParamEE8IteratorE, i64 0, i32 0, i64 2), ptr %call, align 8
  %base_.i = getelementptr inbounds i8, ptr %call, i64 8
  store ptr %this, ptr %base_.i, align 8
  %iterator_.i = getelementptr inbounds i8, ptr %call, i64 16
  store ptr %container_.val, ptr %iterator_.i, align 8
  %value_.i = getelementptr inbounds i8, ptr %call, i64 24
  store ptr null, ptr %value_.i, align 8
  ret ptr %call
}